Certificate:
    Data:
        Version: 3 (0x2)
        Serial Number:
            f1:d8:a4:60:fc:39:b8:19
    Signature Algorithm: sha1WithRSAEncryption
        Issuer: C=CN, ST=Beijing, O=SmartMaster Co. Ltd, OU=dev, CN=www.smartmaster.com/emailAddress=smart.master@live.com
        Validity
            Not Before: Mar 24 04:01:07 2014 GMT
            Not After : Mar 23 04:01:07 2017 GMT
        Subject: C=CN, ST=Beijing, O=SmartMaster Co. Ltd, OU=dev, CN=www.smartmaster.com/emailAddress=smart.master@live.com
        Subject Public Key Info:
            Public Key Algorithm: rsaEncryption
                Public-Key: (1024 bit)
                Modulus:
                    00:99:75:3d:c6:a5:35:05:5d:bc:75:67:0d:ed:6a:
                    a7:48:ca:41:94:9b:dc:18:e7:c4:de:71:87:29:e5:
                    a4:b7:9d:e7:f5:5f:c3:97:9d:b7:3a:ce:2f:73:35:
                    10:d6:e0:74:28:4c:6a:1a:53:bb:4d:33:9c:2e:0e:
                    e5:99:7a:ce:51:9c:bc:a0:71:f9:90:47:f9:13:da:
                    65:f0:79:d8:df:a0:b7:99:fd:b3:5d:39:af:2e:21:
                    29:d7:39:eb:f2:64:eb:69:fb:37:ef:9f:f6:b2:36:
                    98:d3:09:a9:68:0b:12:d5:51:cf:99:45:da:a3:b1:
                    fd:f4:d5:39:a0:ff:b0:7e:49
                Exponent: 65537 (0x10001)
        X509v3 extensions:
            X509v3 Subject Key Identifier: 
                A2:F3:32:31:12:EC:E0:96:86:59:22:13:73:10:A0:F2:88:3C:C9:4F
            X509v3 Authority Key Identifier: 
                keyid:A2:F3:32:31:12:EC:E0:96:86:59:22:13:73:10:A0:F2:88:3C:C9:4F

            X509v3 Basic Constraints: 
                CA:TRUE
    Signature Algorithm: sha1WithRSAEncryption
         0a:9e:71:04:2a:50:ae:5e:26:d3:0b:94:7c:2a:0f:06:e1:46:
         30:de:32:6d:1c:b8:bb:31:22:19:78:e4:a2:cb:a7:7e:c5:5b:
         5d:03:d1:af:0b:f2:50:a8:82:8f:af:be:a6:27:2a:46:f0:b7:
         37:46:91:b3:48:0d:4f:d0:d0:68:46:15:32:1b:03:ef:e9:d2:
         fd:86:ac:63:08:59:07:db:c1:cc:5b:4f:20:36:49:60:5d:9e:
         f8:ec:ff:ab:af:4a:2a:68:71:e7:67:3f:2a:bb:72:94:38:c9:
         52:44:1d:ba:27:a4:8c:7d:f0:f5:56:e5:bd:f2:50:4c:54:c1:
         56:ef
-----BEGIN CERTIFICATE-----
MIIC7jCCAlegAwIBAgIJAPHYpGD8ObgZMA0GCSqGSIb3DQEBBQUAMIGPMQswCQYD
VQQGEwJDTjEQMA4GA1UECAwHQmVpamluZzEcMBoGA1UECgwTU21hcnRNYXN0ZXIg
Q28uIEx0ZDEMMAoGA1UECwwDZGV2MRwwGgYDVQQDDBN3d3cuc21hcnRtYXN0ZXIu
Y29tMSQwIgYJKoZIhvcNAQkBFhVzbWFydC5tYXN0ZXJAbGl2ZS5jb20wHhcNMTQw
MzI0MDQwMTA3WhcNMTcwMzIzMDQwMTA3WjCBjzELMAkGA1UEBhMCQ04xEDAOBgNV
BAgMB0JlaWppbmcxHDAaBgNVBAoME1NtYXJ0TWFzdGVyIENvLiBMdGQxDDAKBgNV
BAsMA2RldjEcMBoGA1UEAwwTd3d3LnNtYXJ0bWFzdGVyLmNvbTEkMCIGCSqGSIb3
DQEJARYVc21hcnQubWFzdGVyQGxpdmUuY29tMIGfMA0GCSqGSIb3DQEBAQUAA4GN
ADCBiQKBgQCZdT3GpTUFXbx1Zw3taqdIykGUm9wY58TecYcp5aS3nef1X8OXnbc6
zi9zNRDW4HQoTGoaU7tNM5wuDuWZes5RnLygcfmQR/kT2mXwedjfoLeZ/bNdOa8u
ISnXOevyZOtp+zfvn/ayNpjTCaloCxLVUc+ZRdqjsf301Tmg/7B+SQIDAQABo1Aw
TjAdBgNVHQ4EFgQUovMyMRLs4JaGWSITcxCg8og8yU8wHwYDVR0jBBgwFoAUovMy
MRLs4JaGWSITcxCg8og8yU8wDAYDVR0TBAUwAwEB/zANBgkqhkiG9w0BAQUFAAOB
gQAKnnEEKlCuXibTC5R8Kg8G4UYw3jJtHLi7MSIZeOSiy6d+xVtdA9GvC/JQqIKP
r76mJypG8Lc3RpGzSA1P0NBoRhUyGwPv6dL9hqxjCFkH28HMW08gNklgXZ747P+r
r0oqaHHnZz8qu3KUOMlSRB26J6SMffD1VuW98lBMVMFW7w==
-----END CERTIFICATE-----
