Certificate:
    Data:
        Version: 3 (0x2)
        Serial Number:
            f1:d8:a4:60:fc:39:b8:1a
    Signature Algorithm: sha1WithRSAEncryption
        Issuer: C=CN, ST=Beijing, O=SmartMaster Co. Ltd, OU=dev, CN=www.smartmaster.com/emailAddress=smart.master@live.com
        Validity
            Not Before: Mar 24 04:02:53 2014 GMT
            Not After : Mar 24 04:02:53 2015 GMT
        Subject: C=CN, ST=Beijing, O=SmartMaster Co. Ltd, OU=dev, CN=www.smartmaster-client.com/emailAddress=smart.master.client@live.com
        Subject Public Key Info:
            Public Key Algorithm: rsaEncryption
                Public-Key: (1024 bit)
                Modulus:
                    00:c4:53:79:dd:57:fc:b4:72:82:43:12:06:0b:77:
                    3b:72:3a:9a:55:73:69:20:51:f1:59:f4:cc:a0:64:
                    31:18:06:32:b9:bc:71:d3:01:39:8b:7e:df:40:12:
                    c7:b8:d3:64:33:3c:1e:61:fc:8b:be:f1:31:83:2a:
                    cc:a1:23:0c:ee:b4:8d:3b:35:65:cf:2b:c5:9b:8a:
                    96:75:00:b0:09:18:7f:c8:16:1d:0f:64:8a:db:6c:
                    a3:e4:bf:93:6a:3b:2e:2d:0d:92:3e:4b:22:d8:66:
                    bf:0b:8d:e4:3f:4e:d2:fb:27:0c:17:15:63:aa:fe:
                    83:56:ae:cd:f5:fe:3a:50:17
                Exponent: 65537 (0x10001)
        X509v3 extensions:
            X509v3 Basic Constraints: 
                CA:FALSE
            Netscape Comment: 
                OpenSSL Generated Certificate
            X509v3 Subject Key Identifier: 
                95:16:F6:95:82:10:0E:F9:C5:8A:97:A5:F7:D8:16:3B:F0:F5:5A:0E
            X509v3 Authority Key Identifier: 
                keyid:A2:F3:32:31:12:EC:E0:96:86:59:22:13:73:10:A0:F2:88:3C:C9:4F

    Signature Algorithm: sha1WithRSAEncryption
         51:80:bf:92:c4:d5:92:c7:79:ef:2e:7e:83:86:ba:15:7c:56:
         e0:6c:05:31:b7:7c:23:ba:0a:f4:d3:d9:80:b4:33:ca:5b:93:
         48:50:e5:74:7c:1c:a9:29:18:82:02:bd:1c:ad:1c:06:9d:6e:
         13:f0:36:54:31:70:8d:4c:f5:10:d8:f1:2c:04:e5:c5:f0:ee:
         44:fa:0a:0c:4f:fa:35:85:ca:e6:4d:dc:ff:37:16:50:1a:f2:
         55:36:29:40:4e:fd:7c:25:51:4a:3b:da:49:ad:68:2d:d1:81:
         b4:ff:2a:f3:72:99:e7:4e:05:cf:85:d7:11:15:d2:e0:59:d2:
         03:ef
-----BEGIN CERTIFICATE-----
MIIDJzCCApCgAwIBAgIJAPHYpGD8ObgaMA0GCSqGSIb3DQEBBQUAMIGPMQswCQYD
VQQGEwJDTjEQMA4GA1UECAwHQmVpamluZzEcMBoGA1UECgwTU21hcnRNYXN0ZXIg
Q28uIEx0ZDEMMAoGA1UECwwDZGV2MRwwGgYDVQQDDBN3d3cuc21hcnRtYXN0ZXIu
Y29tMSQwIgYJKoZIhvcNAQkBFhVzbWFydC5tYXN0ZXJAbGl2ZS5jb20wHhcNMTQw
MzI0MDQwMjUzWhcNMTUwMzI0MDQwMjUzWjCBnTELMAkGA1UEBhMCQ04xEDAOBgNV
BAgMB0JlaWppbmcxHDAaBgNVBAoME1NtYXJ0TWFzdGVyIENvLiBMdGQxDDAKBgNV
BAsMA2RldjEjMCEGA1UEAwwad3d3LnNtYXJ0bWFzdGVyLWNsaWVudC5jb20xKzAp
BgkqhkiG9w0BCQEWHHNtYXJ0Lm1hc3Rlci5jbGllbnRAbGl2ZS5jb20wgZ8wDQYJ
KoZIhvcNAQEBBQADgY0AMIGJAoGBAMRTed1X/LRygkMSBgt3O3I6mlVzaSBR8Vn0
zKBkMRgGMrm8cdMBOYt+30ASx7jTZDM8HmH8i77xMYMqzKEjDO60jTs1Zc8rxZuK
lnUAsAkYf8gWHQ9kittso+S/k2o7Li0Nkj5LIthmvwuN5D9O0vsnDBcVY6r+g1au
zfX+OlAXAgMBAAGjezB5MAkGA1UdEwQCMAAwLAYJYIZIAYb4QgENBB8WHU9wZW5T
U0wgR2VuZXJhdGVkIENlcnRpZmljYXRlMB0GA1UdDgQWBBSVFvaVghAO+cWKl6X3
2BY78PVaDjAfBgNVHSMEGDAWgBSi8zIxEuzgloZZIhNzEKDyiDzJTzANBgkqhkiG
9w0BAQUFAAOBgQBRgL+SxNWSx3nvLn6DhroVfFbgbAUxt3wjugr009mAtDPKW5NI
UOV0fBypKRiCAr0crRwGnW4T8DZUMXCNTPUQ2PEsBOXF8O5E+goMT/o1hcrmTdz/
NxZQGvJVNilATv18JVFKO9pJrWgt0YG0/yrzcpnnTgXPhdcRFdLgWdID7w==
-----END CERTIFICATE-----
