Certificate:
    Data:
        Version: 3 (0x2)
        Serial Number:
            f1:d8:a4:60:fc:39:b8:1b
    Signature Algorithm: sha1WithRSAEncryption
        Issuer: C=CN, ST=Beijing, O=SmartMaster Co. Ltd, OU=dev, CN=www.smartmaster.com/emailAddress=smart.master@live.com
        Validity
            Not Before: Mar 24 04:03:07 2014 GMT
            Not After : Mar 24 04:03:07 2015 GMT
        Subject: C=CN, ST=Beijing, O=SmartMaster Co. Ltd, OU=dev, CN=www.smartmaster-server.com/emailAddress=smart.master.server@live.com
        Subject Public Key Info:
            Public Key Algorithm: rsaEncryption
                Public-Key: (1024 bit)
                Modulus:
                    00:b2:24:bb:68:21:cd:30:80:0e:48:48:f4:03:0d:
                    0a:37:d7:7d:e9:a4:e7:05:3d:30:6e:56:f3:65:25:
                    18:2e:83:50:e3:2d:c3:c0:5d:2c:74:97:6a:10:92:
                    cb:81:bd:7b:5f:66:f3:e4:a2:61:1b:52:a2:aa:6d:
                    56:ca:09:f9:a9:93:6b:b9:59:8e:56:2a:9c:f7:b1:
                    99:2b:63:58:29:6e:29:99:60:06:64:fb:5e:9c:61:
                    ac:f2:48:39:be:48:ea:eb:3a:70:78:c1:f1:4c:8f:
                    9e:b7:b2:91:24:66:87:d1:23:b3:02:e2:44:2f:3c:
                    fb:d9:30:94:37:ef:ca:0f:e5
                Exponent: 65537 (0x10001)
        X509v3 extensions:
            X509v3 Basic Constraints: 
                CA:FALSE
            Netscape Comment: 
                OpenSSL Generated Certificate
            X509v3 Subject Key Identifier: 
                5F:8A:44:48:35:39:CE:B4:35:C8:F0:7A:AE:19:7F:11:EA:3C:C4:98
            X509v3 Authority Key Identifier: 
                keyid:A2:F3:32:31:12:EC:E0:96:86:59:22:13:73:10:A0:F2:88:3C:C9:4F

    Signature Algorithm: sha1WithRSAEncryption
         74:c1:dc:01:86:50:16:53:b7:46:ac:59:d3:41:93:15:a8:aa:
         24:e0:65:0d:b5:1a:58:5a:a8:09:fc:fa:27:01:c0:ac:c2:d1:
         03:f9:3d:a9:dd:74:ce:10:05:5e:ff:77:e1:9f:a1:16:46:a6:
         40:a2:44:bc:87:f2:30:91:a3:73:e6:e3:e6:8e:99:18:1e:d5:
         55:87:46:9c:8b:f0:dd:13:d5:3d:7c:5f:98:3c:53:8d:42:fb:
         83:ad:40:41:94:b3:22:e1:0f:be:63:27:97:35:cb:9b:d5:68:
         b6:67:41:76:b4:50:dc:38:10:36:5d:d4:95:3a:16:bd:7f:93:
         b5:9e
-----BEGIN CERTIFICATE-----
MIIDJzCCApCgAwIBAgIJAPHYpGD8ObgbMA0GCSqGSIb3DQEBBQUAMIGPMQswCQYD
VQQGEwJDTjEQMA4GA1UECAwHQmVpamluZzEcMBoGA1UECgwTU21hcnRNYXN0ZXIg
Q28uIEx0ZDEMMAoGA1UECwwDZGV2MRwwGgYDVQQDDBN3d3cuc21hcnRtYXN0ZXIu
Y29tMSQwIgYJKoZIhvcNAQkBFhVzbWFydC5tYXN0ZXJAbGl2ZS5jb20wHhcNMTQw
MzI0MDQwMzA3WhcNMTUwMzI0MDQwMzA3WjCBnTELMAkGA1UEBhMCQ04xEDAOBgNV
BAgMB0JlaWppbmcxHDAaBgNVBAoME1NtYXJ0TWFzdGVyIENvLiBMdGQxDDAKBgNV
BAsMA2RldjEjMCEGA1UEAwwad3d3LnNtYXJ0bWFzdGVyLXNlcnZlci5jb20xKzAp
BgkqhkiG9w0BCQEWHHNtYXJ0Lm1hc3Rlci5zZXJ2ZXJAbGl2ZS5jb20wgZ8wDQYJ
KoZIhvcNAQEBBQADgY0AMIGJAoGBALIku2ghzTCADkhI9AMNCjfXfemk5wU9MG5W
82UlGC6DUOMtw8BdLHSXahCSy4G9e19m8+SiYRtSoqptVsoJ+amTa7lZjlYqnPex
mStjWCluKZlgBmT7XpxhrPJIOb5I6us6cHjB8UyPnreykSRmh9EjswLiRC88+9kw
lDfvyg/lAgMBAAGjezB5MAkGA1UdEwQCMAAwLAYJYIZIAYb4QgENBB8WHU9wZW5T
U0wgR2VuZXJhdGVkIENlcnRpZmljYXRlMB0GA1UdDgQWBBRfikRINTnOtDXI8Hqu
GX8R6jzEmDAfBgNVHSMEGDAWgBSi8zIxEuzgloZZIhNzEKDyiDzJTzANBgkqhkiG
9w0BAQUFAAOBgQB0wdwBhlAWU7dGrFnTQZMVqKok4GUNtRpYWqgJ/PonAcCswtED
+T2p3XTOEAVe/3fhn6EWRqZAokS8h/IwkaNz5uPmjpkYHtVVh0aci/DdE9U9fF+Y
PFONQvuDrUBBlLMi4Q++YyeXNcub1Wi2Z0F2tFDcOBA2XdSVOha9f5O1ng==
-----END CERTIFICATE-----
